ccopy_reg
_reconstructor
p1
(csklearn.linear_model.coordinate_descent
Lasso
p2
c__builtin__
object
p3
NtRp4
(dp5
S'normalize'
p6
I00
sS'warm_start'
p7
I00
sS'selection'
p8
S'cyclic'
p9
sS'fit_intercept'
p10
I01
sS'l1_ratio'
p11
F1
sS'max_iter'
p12
I1000
sS'dual_gap_'
p13
cnumpy.core.multiarray
_reconstruct
p14
(cnumpy
ndarray
p15
(I0
tS'b'
tRp16
(I1
(tcnumpy
dtype
p17
(S'f8'
I0
I1
tRp18
(I3
S'<'
NNNI-1
I-1
I0
tbI00
S"\x00\x80'l\xbf\x16\xf6A"
tbsS'random_state'
p19
NsS'n_iter_'
p20
I24
sS'precompute'
p21
I00
sS'coef_'
p22
g14
(g15
(I0
tS'b'
tRp23
(I1
(I7
tg18
I00
S'Y.\xbb\x83\xdbU\x14\xc1`\x05Lf\xac\xfb\x01@\x0c\xff\xde\x81\xbf\r\x94@\x96\xb6\x13[-\xd7\xc0\xc0W-\x9b\xbb\xfd#\xd1@B\xe3A\x1e\xdf\xf0\xcb\xc0\x00\x00\x00\x00\x00\x00\x00\x00'
tbsS'tol'
p24
F0.0001
sS'positive'
p25
I00
sS'copy_X'
p26
I01
sS'alpha'
p27
F1
sS'intercept_'
p28
cnumpy.core.multiarray
scalar
p29
(g18
S'&K\x08~\xc4\xb2\x04\xc1'
tRp30
sb.